target datalayout = "e-m:e-p270:32:32-p271:32:32-p272:64:64-i64:64-i128:128-f80:128-n8:16:32:64-S128"
target triple = "x86_64-pc-linux-gnu"

%"class.pybind11::object" = type { %"class.pybind11::handle" }
%"class.pybind11::handle" = type { ptr }
%"class.pybind11::str" = type { %"class.pybind11::object" }
%"struct.pybind11::detail::void_type" = type { i8 }
%"class.std::tuple.746" = type { %"struct.std::_Tuple_impl.747" }
%"struct.std::_Tuple_impl.747" = type { %"struct.std::_Head_base.748" }
%"struct.std::_Head_base.748" = type { %"class.pybind11::detail::type_caster.749" }
%"class.pybind11::detail::type_caster.749" = type { %"struct.pybind11::detail::pyobject_caster.750" }
%"struct.pybind11::detail::pyobject_caster.750" = type { %"class.pybind11::object" }
%"class.pybind11::detail::argument_loader.862" = type { %"class.std::tuple.746" }

@_ZTIN8pybind1117error_already_setE = linkonce_odr hidden constant { ptr, ptr, ptr } { ptr getelementptr inbounds (ptr, ptr @_ZTVN10__cxxabiv120__si_class_type_infoE, i64 2), ptr @_ZTSN8pybind1117error_already_setE, ptr @_ZTISt9exception }, comdat, align 8

; Function Attrs: mustprogress nounwind uwtable
define linkonce_odr hidden void @_ZN8pybind116objectC2ENS_6handleENS0_8stolen_tE(ptr noundef nonnull align 8 dereferenceable(8) %0, ptr %1) unnamed_addr #5 comdat align 2 {
  %3 = alloca %"class.pybind11::handle", align 8
  %4 = alloca ptr, align 8
  %5 = getelementptr inbounds nuw %"class.pybind11::handle", ptr %3, i32 0, i32 0
  store ptr %1, ptr %5, align 8
  store ptr %0, ptr %4, align 8, !tbaa !171
  %6 = load ptr, ptr %4, align 8
  call void @llvm.memcpy.p0.p0.i64(ptr align 8 %6, ptr align 8 %3, i64 8, i1 false)
  ret void
}

; Function Attrs: mustprogress nounwind uwtable
define linkonce_odr hidden void @_ZN8pybind113strC2ENS_6handleENS_6object8stolen_tE(ptr noundef nonnull align 8 dereferenceable(8) %0, ptr %1) unnamed_addr #5 comdat align 2 {
  %3 = alloca %"class.pybind11::handle", align 8
  %4 = alloca ptr, align 8
  %5 = alloca %"class.pybind11::handle", align 8
  %6 = getelementptr inbounds nuw %"class.pybind11::handle", ptr %3, i32 0, i32 0
  store ptr %1, ptr %6, align 8
  store ptr %0, ptr %4, align 8, !tbaa !280
  %7 = load ptr, ptr %4, align 8
  call void @llvm.memcpy.p0.p0.i64(ptr align 8 %5, ptr align 8 %3, i64 8, i1 false)
  %8 = getelementptr inbounds nuw %"class.pybind11::handle", ptr %5, i32 0, i32 0
  %9 = load ptr, ptr %8, align 8
  call void @_ZN8pybind116objectC2ENS_6handleENS0_8stolen_tE(ptr noundef nonnull align 8 dereferenceable(8) %7, ptr %9)
  ret void
}

; Function Attrs: mustprogress nounwind uwtable
define linkonce_odr hidden noundef nonnull align 8 dereferenceable(8) ptr @_ZNSt10_Head_baseILm0EN8pybind116detail11type_casterINS0_6objectEvEELb0EE7_M_headERS5_(ptr noundef nonnull align 8 dereferenceable(8) %0) #5 comdat align 2 {
  %2 = alloca ptr, align 8
  store ptr %0, ptr %2, align 8, !tbaa !2067
  %3 = load ptr, ptr %2, align 8, !tbaa !2067
  %4 = getelementptr inbounds nuw %"struct.std::_Head_base.748", ptr %3, i32 0, i32 0
  ret ptr %4
}

; Function Attrs: mustprogress uwtable
define linkonce_odr hidden void @_ZN8pybind1117reinterpret_stealINS_3strEEET_NS_6handleE(ptr dead_on_unwind noalias writable sret(%"class.pybind11::str") align 8 %0, ptr %1) #4 comdat {
  %3 = alloca ptr, align 8
  %4 = alloca %"class.pybind11::handle", align 8
  %5 = alloca %"class.pybind11::handle", align 8
  store ptr %0, ptr %3, align 8
  %6 = getelementptr inbounds nuw %"class.pybind11::handle", ptr %4, i32 0, i32 0
  store ptr %1, ptr %6, align 8
  call void @llvm.memcpy.p0.p0.i64(ptr align 8 %5, ptr align 8 %4, i64 8, i1 false)
  %7 = getelementptr inbounds nuw %"class.pybind11::handle", ptr %5, i32 0, i32 0
  %8 = load ptr, ptr %7, align 8
  call void @_ZN8pybind113strC2ENS_6handleENS_6object8stolen_tE(ptr noundef nonnull align 8 dereferenceable(8) %0, ptr %8)
  ret void
}

; Function Attrs: mustprogress nounwind uwtable
define linkonce_odr hidden void @_ZN8pybind116handleC2IP7_objectTnNSt9enable_ifIXsr6detail25is_pyobj_ptr_or_nullptr_tIT_EE5valueEiE4typeELi0EEES5_(ptr noundef nonnull align 8 dereferenceable(8) %0, ptr noundef %1) unnamed_addr #5 comdat align 2 {
  %3 = alloca ptr, align 8
  %4 = alloca ptr, align 8
  store ptr %0, ptr %3, align 8, !tbaa !174
  store ptr %1, ptr %4, align 8, !tbaa !139
  %5 = load ptr, ptr %3, align 8
  %6 = getelementptr inbounds nuw %"class.pybind11::handle", ptr %5, i32 0, i32 0
  %7 = load ptr, ptr %4, align 8, !tbaa !139
  store ptr %7, ptr %6, align 8, !tbaa !173
  ret void
}

; Function Attrs: mustprogress nounwind uwtable
define linkonce_odr hidden noundef nonnull align 8 dereferenceable(8) ptr @_ZN8pybind116handle3ptrEv(ptr noundef nonnull align 8 dereferenceable(8) %0) #5 comdat align 2 {
  %2 = alloca ptr, align 8
  store ptr %0, ptr %2, align 8, !tbaa !174
  %3 = load ptr, ptr %2, align 8
  %4 = getelementptr inbounds nuw %"class.pybind11::handle", ptr %3, i32 0, i32 0
  ret ptr %4
}

; Function Attrs: mustprogress nounwind uwtable
define linkonce_odr hidden noundef nonnull align 8 dereferenceable(8) ptr @_ZNSt11_Tuple_implILm0EJN8pybind116detail11type_casterINS0_6objectEvEEEE7_M_headERS5_(ptr noundef nonnull align 8 dereferenceable(8) %0) #5 comdat align 2 {
  %2 = alloca ptr, align 8
  store ptr %0, ptr %2, align 8, !tbaa !2065
  %3 = load ptr, ptr %2, align 8, !tbaa !2065
  %4 = call noundef nonnull align 8 dereferenceable(8) ptr @_ZNSt10_Head_baseILm0EN8pybind116detail11type_casterINS0_6objectEvEELb0EE7_M_headERS5_(ptr noundef nonnull align 8 dereferenceable(8) %3) #24
  ret ptr %4
}

; Function Attrs: inlinehint mustprogress uwtable
define linkonce_odr hidden void @_ZN8pybind114reprENS_6handleE(ptr dead_on_unwind noalias writable sret(%"class.pybind11::str") align 8 %0, ptr %1) #10 comdat personality ptr @__gxx_personality_v0 {
  %3 = alloca ptr, align 8
  %4 = alloca %"class.pybind11::handle", align 8
  %5 = alloca ptr, align 8
  %6 = alloca ptr, align 8
  %7 = alloca i32, align 4
  %8 = alloca %"class.pybind11::handle", align 8
  store ptr %0, ptr %3, align 8
  %9 = getelementptr inbounds nuw %"class.pybind11::handle", ptr %4, i32 0, i32 0
  store ptr %1, ptr %9, align 8
  call void @llvm.lifetime.start.p0(i64 8, ptr %5) #24
  %10 = call noundef nonnull align 8 dereferenceable(8) ptr @_ZN8pybind116handle3ptrEv(ptr noundef nonnull align 8 dereferenceable(8) %4)
  %11 = load ptr, ptr %10, align 8, !tbaa !139
  %12 = call ptr @PyObject_Repr(ptr noundef %11)
  store ptr %12, ptr %5, align 8, !tbaa !139
  %13 = load ptr, ptr %5, align 8, !tbaa !139
  %14 = icmp ne ptr %13, null
  br i1 %14, label %22, label %15

15:                                               ; preds = %2
  %16 = call ptr @__cxa_allocate_exception(i64 24) #24
  invoke void @_ZN8pybind1117error_already_setC2Ev(ptr noundef nonnull align 8 dereferenceable(24) %16)
          to label %17 unwind label %18

17:                                               ; preds = %15
  call void @__cxa_throw(ptr %16, ptr @_ZTIN8pybind1117error_already_setE, ptr @_ZN8pybind1117error_already_setD2Ev) #29
  unreachable

18:                                               ; preds = %15
  %19 = landingpad { ptr, i32 }
          cleanup
  %20 = extractvalue { ptr, i32 } %19, 0
  store ptr %20, ptr %6, align 8
  %21 = extractvalue { ptr, i32 } %19, 1
  store i32 %21, ptr %7, align 4
  call void @__cxa_free_exception(ptr %16) #24
  call void @llvm.lifetime.end.p0(i64 8, ptr %5) #24
  br label %26

22:                                               ; preds = %2
  %23 = load ptr, ptr %5, align 8, !tbaa !139
  call void @_ZN8pybind116handleC2IP7_objectTnNSt9enable_ifIXsr6detail25is_pyobj_ptr_or_nullptr_tIT_EE5valueEiE4typeELi0EEES5_(ptr noundef nonnull align 8 dereferenceable(8) %8, ptr noundef %23)
  %24 = getelementptr inbounds nuw %"class.pybind11::handle", ptr %8, i32 0, i32 0
  %25 = load ptr, ptr %24, align 8
  call void @_ZN8pybind1117reinterpret_stealINS_3strEEET_NS_6handleE(ptr dead_on_unwind writable sret(%"class.pybind11::str") align 8 %0, ptr %25)
  call void @llvm.lifetime.end.p0(i64 8, ptr %5) #24
  ret void

26:                                               ; preds = %18
  %27 = load ptr, ptr %6, align 8
  %28 = load i32, ptr %7, align 4
  %29 = insertvalue { ptr, i32 } poison, ptr %27, 0
  %30 = insertvalue { ptr, i32 } %29, i32 %28, 1
  resume { ptr, i32 } %30
}

; Function Attrs: mustprogress nounwind uwtable
define linkonce_odr hidden noundef nonnull align 8 dereferenceable(8) ptr @_ZNO8pybind116detail15pyobject_casterINS_6objectEEcvOS2_Ev(ptr noundef nonnull align 8 dereferenceable(8) %0) #5 comdat align 2 {
  %2 = alloca ptr, align 8
  store ptr %0, ptr %2, align 8, !tbaa !2071
  %3 = load ptr, ptr %2, align 8
  %4 = getelementptr inbounds nuw %"struct.pybind11::detail::pyobject_caster.750", ptr %3, i32 0, i32 0
  ret ptr %4
}

; Function Attrs: mustprogress nounwind uwtable
define linkonce_odr hidden noundef nonnull align 8 dereferenceable(8) ptr @_ZSt12__get_helperILm0EN8pybind116detail11type_casterINS0_6objectEvEEJEERT0_RSt11_Tuple_implIXT_EJS5_DpT1_EE(ptr noundef nonnull align 8 dereferenceable(8) %0) #5 comdat {
  %2 = alloca ptr, align 8
  store ptr %0, ptr %2, align 8, !tbaa !2065
  %3 = load ptr, ptr %2, align 8, !tbaa !2065
  %4 = call noundef nonnull align 8 dereferenceable(8) ptr @_ZNSt11_Tuple_implILm0EJN8pybind116detail11type_casterINS0_6objectEvEEEE7_M_headERS5_(ptr noundef nonnull align 8 dereferenceable(8) %3) #24
  ret ptr %4
}

; Function Attrs: inlinehint mustprogress uwtable
define internal void @"_ZZ34test_submodule_kwargs_and_defaultsRN8pybind117module_EENK4$_36clENS_6objectE"(ptr dead_on_unwind noalias writable sret(%"class.pybind11::str") align 8 %0, ptr noundef nonnull align 1 dereferenceable(1) %1, ptr noundef %2) #10 align 2 {
  %4 = alloca ptr, align 8
  %5 = alloca ptr, align 8
  %6 = alloca ptr, align 8
  %7 = alloca %"class.pybind11::handle", align 8
  store ptr %0, ptr %4, align 8
  store ptr %1, ptr %5, align 8, !tbaa !93
  store ptr %2, ptr %6, align 8, !tbaa !171
  call void @llvm.memcpy.p0.p0.i64(ptr align 8 %7, ptr align 8 %2, i64 8, i1 false)
  %8 = getelementptr inbounds nuw %"class.pybind11::handle", ptr %7, i32 0, i32 0
  %9 = load ptr, ptr %8, align 8
  call void @_ZN8pybind114reprENS_6handleE(ptr dead_on_unwind writable sret(%"class.pybind11::str") align 8 %0, ptr %9)
  ret void
}

; Function Attrs: mustprogress nounwind uwtable
define linkonce_odr hidden void @_ZN8pybind116objectC2EOS0_(ptr noundef nonnull align 8 dereferenceable(8) %0, ptr noundef nonnull align 8 dereferenceable(8) %1) unnamed_addr #5 comdat align 2 {
  %3 = alloca ptr, align 8
  %4 = alloca ptr, align 8
  store ptr %0, ptr %3, align 8, !tbaa !171
  store ptr %1, ptr %4, align 8, !tbaa !171
  %5 = load ptr, ptr %3, align 8
  %6 = load ptr, ptr %4, align 8, !tbaa !171
  call void @llvm.memcpy.p0.p0.i64(ptr align 8 %5, ptr align 8 %6, i64 8, i1 false)
  %7 = load ptr, ptr %4, align 8, !tbaa !171
  %8 = getelementptr inbounds nuw %"class.pybind11::handle", ptr %7, i32 0, i32 0
  store ptr null, ptr %8, align 8, !tbaa !173
  ret void
}

; Function Attrs: mustprogress uwtable
define linkonce_odr hidden noundef nonnull align 8 dereferenceable(8) ptr @_ZN8pybind116detail7cast_opINS_6objectEEENS0_11type_casterINS0_14intrinsic_typeIT_E4typeEvE12cast_op_typeINSt20add_rvalue_referenceIS5_E4typeEEEOS8_(ptr noundef nonnull align 8 dereferenceable(8) %0) #4 comdat {
  %2 = alloca ptr, align 8
  store ptr %0, ptr %2, align 8, !tbaa !2069
  %3 = load ptr, ptr %2, align 8, !tbaa !2069
  %4 = call noundef nonnull align 8 dereferenceable(8) ptr @_ZNO8pybind116detail15pyobject_casterINS_6objectEEcvOS2_Ev(ptr noundef nonnull align 8 dereferenceable(8) %3)
  ret ptr %4
}

; Function Attrs: mustprogress nounwind uwtable
define linkonce_odr hidden noundef nonnull align 8 dereferenceable(8) ptr @_ZSt3getILm0EJN8pybind116detail11type_casterINS0_6objectEvEEEERNSt13tuple_elementIXT_ESt5tupleIJDpT0_EEE4typeERS9_(ptr noundef nonnull align 8 dereferenceable(8) %0) #5 comdat {
  %2 = alloca ptr, align 8
  store ptr %0, ptr %2, align 8, !tbaa !2063
  %3 = load ptr, ptr %2, align 8, !tbaa !2063
  %4 = call noundef nonnull align 8 dereferenceable(8) ptr @_ZSt12__get_helperILm0EN8pybind116detail11type_casterINS0_6objectEvEEJEERT0_RSt11_Tuple_implIXT_EJS5_DpT1_EE(ptr noundef nonnull align 8 dereferenceable(8) %3) #24
  ret ptr %4
}

; Function Attrs: mustprogress uwtable
define internal void @"_ZNO8pybind116detail15argument_loaderIJNS_6objectEEE9call_implINS_3strERZ34test_submodule_kwargs_and_defaultsRNS_7module_EE4$_36JLm0EENS0_9void_typeEEET_OT0_St16integer_sequenceImJXspT1_EEEOT2_"(ptr dead_on_unwind noalias writable sret(%"class.pybind11::str") align 8 %0, ptr noundef nonnull align 8 dereferenceable(8) %1, ptr noundef nonnull align 1 dereferenceable(1) %2, ptr noundef nonnull align 1 dereferenceable(1) %3) #4 align 2 personality ptr @__gxx_personality_v0 {
  %5 = alloca ptr, align 8
  %6 = alloca ptr, align 8
  %7 = alloca ptr, align 8
  %8 = alloca ptr, align 8
  %9 = alloca %"class.pybind11::object", align 8
  %10 = alloca ptr, align 8
  %11 = alloca i32, align 4
  store ptr %0, ptr %5, align 8
  store ptr %1, ptr %6, align 8, !tbaa !2214
  store ptr %2, ptr %7, align 8, !tbaa !93
  store ptr %3, ptr %8, align 8, !tbaa !942
  %12 = load ptr, ptr %6, align 8
  %13 = load ptr, ptr %7, align 8, !tbaa !93
  %14 = getelementptr inbounds nuw %"class.pybind11::detail::argument_loader.862", ptr %12, i32 0, i32 0
  %15 = call noundef nonnull align 8 dereferenceable(8) ptr @_ZSt3getILm0EJN8pybind116detail11type_casterINS0_6objectEvEEEERNSt13tuple_elementIXT_ESt5tupleIJDpT0_EEE4typeERS9_(ptr noundef nonnull align 8 dereferenceable(8) %14) #24
  %16 = call noundef nonnull align 8 dereferenceable(8) ptr @_ZN8pybind116detail7cast_opINS_6objectEEENS0_11type_casterINS0_14intrinsic_typeIT_E4typeEvE12cast_op_typeINSt20add_rvalue_referenceIS5_E4typeEEEOS8_(ptr noundef nonnull align 8 dereferenceable(8) %15)
  call void @_ZN8pybind116objectC2EOS0_(ptr noundef nonnull align 8 dereferenceable(8) %9, ptr noundef nonnull align 8 dereferenceable(8) %16) #24
  invoke void @"_ZZ34test_submodule_kwargs_and_defaultsRN8pybind117module_EENK4$_36clENS_6objectE"(ptr dead_on_unwind writable sret(%"class.pybind11::str") align 8 %0, ptr noundef nonnull align 1 dereferenceable(1) %13, ptr noundef %9)
          to label %17 unwind label %18

17:                                               ; preds = %4
  call void @_ZN8pybind116objectD2Ev(ptr noundef nonnull align 8 dereferenceable(8) %9) #24
  ret void

18:                                               ; preds = %4
  %19 = landingpad { ptr, i32 }
          cleanup
  %20 = extractvalue { ptr, i32 } %19, 0
  store ptr %20, ptr %10, align 8
  %21 = extractvalue { ptr, i32 } %19, 1
  store i32 %21, ptr %11, align 4
  call void @_ZN8pybind116objectD2Ev(ptr noundef nonnull align 8 dereferenceable(8) %9) #24
  br label %22

22:                                               ; preds = %18
  %23 = load ptr, ptr %10, align 8
  %24 = load i32, ptr %11, align 4
  %25 = insertvalue { ptr, i32 } poison, ptr %23, 0
  %26 = insertvalue { ptr, i32 } %25, i32 %24, 1
  resume { ptr, i32 } %26
}

; Function Attrs: mustprogress uwtable
define internal void @"_ZNO8pybind116detail15argument_loaderIJNS_6objectEEE4callINS_3strENS0_9void_typeERZ34test_submodule_kwargs_and_defaultsRNS_7module_EE4$_36EENSt9enable_ifIXntsr3std7is_voidIT_EE5valueESC_E4typeEOT1_"(ptr dead_on_unwind noalias writable sret(%"class.pybind11::str") align 8 %0, ptr noundef nonnull align 8 dereferenceable(8) %1, ptr noundef nonnull align 1 dereferenceable(1) %2) #4 align 2 {
  %4 = alloca ptr, align 8
  %5 = alloca ptr, align 8
  %6 = alloca ptr, align 8
  %7 = alloca %"struct.pybind11::detail::void_type", align 1
  store ptr %0, ptr %4, align 8
  store ptr %1, ptr %5, align 8, !tbaa !2214
  store ptr %2, ptr %6, align 8, !tbaa !93
  %8 = load ptr, ptr %5, align 8
  %9 = load ptr, ptr %6, align 8, !tbaa !93
  call void @llvm.lifetime.start.p0(i64 1, ptr %7) #24
  call void @"_ZNO8pybind116detail15argument_loaderIJNS_6objectEEE9call_implINS_3strERZ34test_submodule_kwargs_and_defaultsRNS_7module_EE4$_36JLm0EENS0_9void_typeEEET_OT0_St16integer_sequenceImJXspT1_EEEOT2_"(ptr dead_on_unwind writable sret(%"class.pybind11::str") align 8 %0, ptr noundef nonnull align 8 dereferenceable(8) %8, ptr noundef nonnull align 1 dereferenceable(1) %9, ptr noundef nonnull align 1 dereferenceable(1) %7)
  call void @llvm.lifetime.end.p0(i64 1, ptr %7) #24
  ret void
}