; Function Attrs: mustprogress uwtable
define internal fastcc void @"_ZNO8pybind116detail15argument_loaderIJNS_6objectEEE4callINS_3strENS0_9void_typeERZ34test_submodule_kwargs_and_defaultsRNS_7module_EE4$_36EENSt9enable_ifIXntsr3std7is_voidIT_EE5valueESC_E4typeEOT1_"(ptr dead_on_unwind noalias nonnull writable writeonly align 8 captures(none) %0, ptr noundef nonnull align 8 captures(none) dereferenceable(8) %1) unnamed_addr #5 align 2 personality ptr @__gxx_personality_v0 {
  %3 = alloca %"class.pybind11::object", align 8
  tail call void @llvm.experimental.noalias.scope.decl(metadata !2503)
  call void @llvm.lifetime.start.p0(i64 8, ptr nonnull %3)
  %4 = load i64, ptr %1, align 8, !noalias !2503
  store i64 %4, ptr %3, align 8, !noalias !2503
  store ptr null, ptr %1, align 8, !tbaa !92, !noalias !2503
  %.val.cast.i = inttoptr i64 %4 to ptr
  tail call void @llvm.experimental.noalias.scope.decl(metadata !2506)
  tail call void @llvm.experimental.noalias.scope.decl(metadata !2509)
  %5 = invoke ptr @PyObject_Repr(ptr noundef %.val.cast.i)
          to label %.noexc.i unwind label %19, !noalias !2503

.noexc.i:                                         ; preds = %2
  %.not.i.i.i = icmp eq ptr %5, null
  br i1 %.not.i.i.i, label %6, label %11

6:                                                ; preds = %.noexc.i
  %7 = tail call ptr @__cxa_allocate_exception(i64 24) #30, !noalias !2512
  invoke void @_ZN8pybind1117error_already_setC2Ev(ptr noundef nonnull align 8 dereferenceable(24) %7)
          to label %8 unwind label %9, !noalias !2512

8:                                                ; preds = %6
  invoke void @__cxa_throw(ptr nonnull %7, ptr nonnull @_ZTIN8pybind1117error_already_setE, ptr nonnull @_ZN8pybind1117error_already_setD2Ev) #32
          to label %.noexc3.i unwind label %19, !noalias !2503

.noexc3.i:                                        ; preds = %8
  unreachable

9:                                                ; preds = %6
  %10 = landingpad { ptr, i32 }
          cleanup
  tail call void @__cxa_free_exception(ptr nonnull %7) #30, !noalias !2512
  br label %.body.i

11:                                               ; preds = %.noexc.i
  store ptr %5, ptr %0, align 8, !alias.scope !2513
  %.not.i.i.i.i = icmp eq i64 %4, 0
  br i1 %.not.i.i.i.i, label %"_ZNO8pybind116detail15argument_loaderIJNS_6objectEEE9call_implINS_3strERZ34test_submodule_kwargs_and_defaultsRNS_7module_EE4$_36JLm0EENS0_9void_typeEEET_OT0_St16integer_sequenceImJXspT1_EEEOT2_.exit", label %12

12:                                               ; preds = %11
  %13 = load i64, ptr %.val.cast.i, align 8, !tbaa !80, !noalias !2503
  %14 = add nsw i64 %13, -1
  store i64 %14, ptr %.val.cast.i, align 8, !tbaa !80, !noalias !2503
  %.not.i.i.i.i.i = icmp eq i64 %14, 0
  br i1 %.not.i.i.i.i.i, label %15, label %"_ZNO8pybind116detail15argument_loaderIJNS_6objectEEE9call_implINS_3strERZ34test_submodule_kwargs_and_defaultsRNS_7module_EE4$_36JLm0EENS0_9void_typeEEET_OT0_St16integer_sequenceImJXspT1_EEEOT2_.exit"

15:                                               ; preds = %12
  invoke void @_Py_Dealloc(ptr noundef nonnull %.val.cast.i)
          to label %"_ZNO8pybind116detail15argument_loaderIJNS_6objectEEE9call_implINS_3strERZ34test_submodule_kwargs_and_defaultsRNS_7module_EE4$_36JLm0EENS0_9void_typeEEET_OT0_St16integer_sequenceImJXspT1_EEEOT2_.exit" unwind label %16, !noalias !2503

16:                                               ; preds = %15
  %17 = landingpad { ptr, i32 }
          catch ptr null
  %18 = extractvalue { ptr, i32 } %17, 0
  tail call void @__clang_call_terminate(ptr %18) #31, !noalias !2503
  unreachable

19:                                               ; preds = %8, %2
  %20 = landingpad { ptr, i32 }
          cleanup
  br label %.body.i

.body.i:                                          ; preds = %19, %9
  %eh.lpad-body.i = phi { ptr, i32 } [ %20, %19 ], [ %10, %9 ]
  call void @_ZN8pybind116objectD2Ev(ptr noundef nonnull align 8 dereferenceable(8) %3) #30, !noalias !2503
  resume { ptr, i32 } %eh.lpad-body.i

"_ZNO8pybind116detail15argument_loaderIJNS_6objectEEE9call_implINS_3strERZ34test_submodule_kwargs_and_defaultsRNS_7module_EE4$_36JLm0EENS0_9void_typeEEET_OT0_St16integer_sequenceImJXspT1_EEEOT2_.exit": ; preds = %11, %12, %15
  call void @llvm.lifetime.end.p0(i64 8, ptr nonnull %3)
  ret void
}